Certificate:
    Data:
        Version: 3 (0x2)
        Serial Number: 1 (0x1)
    Signature Algorithm: sha256WithRSAEncryption
        Issuer: C=CN, ST=Shaxi, L=Xian, O=Haxima, OU=section, CN=192.168.0.191:12306/emailAddress=failymao@live.com
        Validity
            Not Before: Jul  9 08:15:09 2018 GMT
            Not After : Jul  9 08:15:09 2019 GMT
        Subject: C=CN, ST=Shaxi, O=Haxima, OU=section, CN=192.168.0.191:12306/emailAddress=failymao@live.com
        Subject Public Key Info:
            Public Key Algorithm: rsaEncryption
                Public-Key: (2048 bit)
                Modulus:
                    00:d5:fe:aa:a0:a3:92:7c:be:97:2b:a7:b2:2e:46:
                    86:da:11:0a:e9:2f:8b:4a:64:31:99:77:41:83:9e:
                    c2:27:c1:ad:86:e0:45:c8:f0:bd:d5:e5:f5:60:20:
                    bc:2e:4a:87:6c:46:32:78:89:b5:c5:22:86:5e:46:
                    0d:ea:94:0f:22:0b:be:87:ca:46:04:8c:d3:ca:80:
                    07:52:60:c1:d6:20:95:fe:d4:78:67:08:fb:9f:f1:
                    e9:c5:5d:b5:9a:30:f8:3f:e8:55:f6:35:ad:aa:09:
                    cd:74:27:b9:7f:a6:3d:84:56:7c:91:a9:e8:b3:54:
                    20:07:72:d7:73:91:5a:88:84:01:f4:33:5e:7a:88:
                    95:cd:2c:50:6a:91:24:55:bb:04:cb:83:2f:82:3b:
                    79:e9:03:6a:71:d0:e1:09:54:34:95:0d:df:24:11:
                    e2:10:ff:8b:a6:f0:93:e6:1f:81:29:fa:b1:1e:1e:
                    11:ee:f2:c8:a2:8b:8f:3c:68:5f:9d:47:a4:b4:f8:
                    12:07:31:46:42:90:64:a9:9f:ad:ef:a7:b5:6c:09:
                    ab:77:12:87:e3:1a:eb:e3:23:5b:5d:04:3c:c7:42:
                    d2:c3:c4:72:93:7e:42:40:dd:20:89:ac:51:c5:20:
                    b3:52:a9:08:d5:0d:bd:fd:ab:18:7f:2c:2c:b0:44:
                    89:4d
                Exponent: 65537 (0x10001)
        X509v3 extensions:
            X509v3 Basic Constraints: 
                CA:FALSE
            Netscape Comment: 
                OpenSSL Generated Certificate
            X509v3 Subject Key Identifier: 
                DB:2F:C7:B6:2A:98:52:8F:FA:B7:68:C5:8C:BB:9B:8B:C3:39:02:60
            X509v3 Authority Key Identifier: 
                keyid:3B:B9:83:10:31:C1:34:54:6D:CC:B1:3B:72:FE:F6:2D:16:87:B5:C2

    Signature Algorithm: sha256WithRSAEncryption
         b7:63:7a:f0:72:c2:62:cb:cb:60:da:b7:ad:ca:ec:ba:63:0e:
         0c:bd:d2:a8:59:83:68:eb:ea:bf:58:a5:6d:be:c8:58:6b:90:
         d8:c3:be:3d:be:48:8b:fa:61:0a:bf:4f:31:8b:6a:30:02:6b:
         01:ff:da:5d:c8:3d:5e:40:e0:17:33:10:90:61:3b:7f:3e:e0:
         48:13:de:0e:95:40:cb:4d:b2:19:69:64:db:34:23:72:26:66:
         7c:64:c0:2a:fa:80:96:8f:15:3c:77:e7:5c:9d:6b:7a:a9:6f:
         c3:c0:2d:b7:17:d6:6b:d4:77:a7:f3:c7:6f:82:60:e0:06:6e:
         ff:13:b9:94:7d:00:77:bd:1b:00:04:23:a1:a5:83:56:9c:32:
         2e:4d:ae:70:9e:63:1f:5e:5c:18:4b:bf:cb:01:d1:71:6f:b8:
         7d:d1:8f:7e:55:d9:30:1c:42:6b:7a:36:2b:bd:18:38:75:98:
         a5:5e:00:28:1a:21:d7:d2:a9:2c:ac:4e:d1:ca:bc:b6:63:f3:
         64:62:8e:3c:db:ad:2f:49:42:09:70:71:1a:d9:3e:c7:a3:ed:
         b2:85:42:46:d9:bd:60:71:62:03:80:e3:d4:49:64:df:0e:b1:
         6b:50:c5:da:37:93:99:85:77:ca:08:f7:4c:c5:a9:64:00:90:
         f1:52:de:e9
-----BEGIN CERTIFICATE-----
MIIEBzCCAu+gAwIBAgIBATANBgkqhkiG9w0BAQsFADCBjzELMAkGA1UEBhMCQ04x
DjAMBgNVBAgMBVNoYXhpMQ0wCwYDVQQHDARYaWFuMQ8wDQYDVQQKDAZIYXhpbWEx
EDAOBgNVBAsMB3NlY3Rpb24xHDAaBgNVBAMMEzE5Mi4xNjguMC4xOTE6MTIzMDYx
IDAeBgkqhkiG9w0BCQEWEWZhaWx5bWFvQGxpdmUuY29tMB4XDTE4MDcwOTA4MTUw
OVoXDTE5MDcwOTA4MTUwOVowgYAxCzAJBgNVBAYTAkNOMQ4wDAYDVQQIDAVTaGF4
aTEPMA0GA1UECgwGSGF4aW1hMRAwDgYDVQQLDAdzZWN0aW9uMRwwGgYDVQQDDBMx
OTIuMTY4LjAuMTkxOjEyMzA2MSAwHgYJKoZIhvcNAQkBFhFmYWlseW1hb0BsaXZl
LmNvbTCCASIwDQYJKoZIhvcNAQEBBQADggEPADCCAQoCggEBANX+qqCjkny+lyun
si5GhtoRCukvi0pkMZl3QYOewifBrYbgRcjwvdXl9WAgvC5Kh2xGMniJtcUihl5G
DeqUDyILvofKRgSM08qAB1JgwdYglf7UeGcI+5/x6cVdtZow+D/oVfY1raoJzXQn
uX+mPYRWfJGp6LNUIAdy13ORWoiEAfQzXnqIlc0sUGqRJFW7BMuDL4I7eekDanHQ
4QlUNJUN3yQR4hD/i6bwk+YfgSn6sR4eEe7yyKKLjzxoX51HpLT4EgcxRkKQZKmf
re+ntWwJq3cSh+Ma6+MjW10EPMdC0sPEcpN+QkDdIImsUcUgs1KpCNUNvf2rGH8s
LLBEiU0CAwEAAaN7MHkwCQYDVR0TBAIwADAsBglghkgBhvhCAQ0EHxYdT3BlblNT
TCBHZW5lcmF0ZWQgQ2VydGlmaWNhdGUwHQYDVR0OBBYEFNsvx7YqmFKP+rdoxYy7
m4vDOQJgMB8GA1UdIwQYMBaAFDu5gxAxwTRUbcyxO3L+9i0Wh7XCMA0GCSqGSIb3
DQEBCwUAA4IBAQC3Y3rwcsJiy8tg2retyuy6Yw4MvdKoWYNo6+q/WKVtvshYa5DY
w749vkiL+mEKv08xi2owAmsB/9pdyD1eQOAXMxCQYTt/PuBIE94OlUDLTbIZaWTb
NCNyJmZ8ZMAq+oCWjxU8d+dcnWt6qW/DwC23F9Zr1Hen88dvgmDgBm7/E7mUfQB3
vRsABCOhpYNWnDIuTa5wnmMfXlwYS7/LAdFxb7h90Y9+VdkwHEJrejYrvRg4dZil
XgAoGiHX0qksrE7Ryry2Y/NkYo48260vSUIJcHEa2T7Ho+2yhUJG2b1gcWIDgOPU
SWTfDrFrUMXaN5OZhXfKCPdMxalkAJDxUt7p
-----END CERTIFICATE-----
